; Function Attrs: mustprogress nounwind uwtable
define hidden void @_ZN4LIEF5MachO15RelocationFixup3setERKNS0_7details26dyld_chained_ptr_32_rebaseE(ptr noundef nonnull writeonly align 8 captures(none) dereferenceable(88) initializes((76, 88)) %0, ptr noundef nonnull readonly align 4 captures(none) dereferenceable(4) %1) local_unnamed_addr #1 align 2 {
  %3 = getelementptr inbounds nuw i8, ptr %0, i64 76
  store i32 4, ptr %3, align 4, !tbaa !6
  %4 = tail call noalias noundef nonnull dereferenceable(4) ptr @_Znwm(i64 noundef 4) #25
  %5 = load i32, ptr %1, align 4, !tbaa !21
  store i32 %5, ptr %4, align 4, !tbaa !21
  %6 = getelementptr inbounds nuw i8, ptr %0, i64 80
  store ptr %4, ptr %6, align 8, !tbaa !21
  ret void
}